; Function Attrs: mustprogress uwtable
define void @_ZN32pxrInternal_v0_24__pxrReserved__22Sdf_ParserValueContext10BeginTupleEv(ptr noundef nonnull align 8 dereferenceable(328) %0) local_unnamed_addr #2 align 2 personality ptr @__gxx_personality_v0 {
  %2 = alloca %"class.std::__cxx11::basic_string", align 8
  %3 = getelementptr inbounds nuw i8, ptr %0, i64 289
  %4 = load i8, ptr %3, align 1
  %5 = trunc i8 %4 to i1
  br i1 %5, label %6, label %16

6:                                                ; preds = %1
  %7 = getelementptr inbounds nuw i8, ptr %0, i64 288
  %8 = load i8, ptr %7, align 8
  %9 = trunc i8 %8 to i1
  br i1 %9, label %10, label %13

10:                                               ; preds = %6
  store i8 0, ptr %7, align 8
  %11 = getelementptr inbounds nuw i8, ptr %0, i64 296
  %12 = tail call noundef nonnull align 8 dereferenceable(32) ptr @_ZNSt7__cxx1112basic_stringIcSt11char_traitsIcESaIcEEpLEPKc(ptr noundef nonnull align 8 dereferenceable(32) %11, ptr noundef nonnull @.str.1)
  br label %13

13:                                               ; preds = %10, %6
  %14 = getelementptr inbounds nuw i8, ptr %0, i64 296
  %15 = tail call noundef nonnull align 8 dereferenceable(32) ptr @_ZNSt7__cxx1112basic_stringIcSt11char_traitsIcESaIcEEpLEc(ptr noundef nonnull align 8 dereferenceable(32) %14, i8 noundef signext 40)
  br label %16

16:                                               ; preds = %13, %1
  %17 = getelementptr inbounds nuw i8, ptr %0, i64 32
  %18 = load i32, ptr %17, align 8
  %19 = sext i32 %18 to i64
  %20 = getelementptr inbounds i8, ptr %0, i64 248
  %21 = load i64, ptr %20, align 8
  %.not = icmp ugt i64 %21, %19
  br i1 %.not, label %34, label %22

22:                                               ; preds = %16
  %23 = getelementptr inbounds nuw i8, ptr %0, i64 120
  %24 = tail call noundef ptr @_ZNKSt7__cxx1112basic_stringIcSt11char_traitsIcESaIcEE5c_strEv(ptr noundef nonnull align 8 dereferenceable(32) %23) #19
  call void (ptr, ptr, ...) @_ZN32pxrInternal_v0_24__pxrReserved__14TfStringPrintfB5cxx11EPKcz(ptr dead_on_unwind nonnull writable sret(%"class.std::__cxx11::basic_string") align 8 %2, ptr noundef nonnull @.str.5, i32 noundef %18, ptr noundef %24)
  %25 = getelementptr inbounds i8, ptr %0, i64 272
  %26 = load ptr, ptr %25, align 8
  %.not.i.i = icmp eq ptr %26, null
  br i1 %.not.i.i, label %27, label %28

27:                                               ; preds = %22
  invoke void @_ZSt25__throw_bad_function_callv() #21
          to label %.noexc unwind label %32

.noexc:                                           ; preds = %27
  unreachable

28:                                               ; preds = %22
  %29 = getelementptr inbounds nuw i8, ptr %0, i64 256
  %30 = getelementptr inbounds i8, ptr %0, i64 280
  %31 = load ptr, ptr %30, align 8
  invoke void %31(ptr noundef nonnull align 8 dereferenceable(16) %29, ptr noundef nonnull align 8 dereferenceable(32) %2)
          to label %_ZNKSt8functionIFvRKNSt7__cxx1112basic_stringIcSt11char_traitsIcESaIcEEEEEclES7_.exit unwind label %32

_ZNKSt8functionIFvRKNSt7__cxx1112basic_stringIcSt11char_traitsIcESaIcEEEEEclES7_.exit: ; preds = %28
  call void @_ZNSt7__cxx1112basic_stringIcSt11char_traitsIcESaIcEED1Ev(ptr noundef nonnull align 8 dereferenceable(32) %2) #19
  br label %42

32:                                               ; preds = %28, %27
  %33 = landingpad { ptr, i32 }
          cleanup
  call void @_ZNSt7__cxx1112basic_stringIcSt11char_traitsIcESaIcEED1Ev(ptr noundef nonnull align 8 dereferenceable(32) %2) #19
  resume { ptr, i32 } %33

34:                                               ; preds = %16
  %35 = getelementptr inbounds nuw i8, ptr %0, i64 232
  %36 = getelementptr inbounds [2 x i64], ptr %35, i64 0, i64 %19
  %37 = load i64, ptr %36, align 8
  %38 = getelementptr inbounds nuw i8, ptr %0, i64 40
  %39 = getelementptr inbounds [2 x i64], ptr %38, i64 0, i64 %19
  store i64 %37, ptr %39, align 8
  %40 = load i32, ptr %17, align 8
  %41 = add nsw i32 %40, 1
  store i32 %41, ptr %17, align 8
  br label %42

42:                                               ; preds = %34, %_ZNKSt8functionIFvRKNSt7__cxx1112basic_stringIcSt11char_traitsIcESaIcEEEEEclES7_.exit
  ret void
}